target datalayout = "e-m:e-p270:32:32-p271:32:32-p272:64:64-i64:64-i128:128-f80:128-n8:16:32:64-S128"
target triple = "x86_64-unknown-linux-gnu"

%class.anon.13 = type { i8 }
%struct.dl_phdr_info = type { i64, ptr, ptr, i16, i64, i64, i64, ptr }

; Function Attrs: mustprogress nounwind uwtable
define internal noundef i32 @"_ZZN4node28NativeSymbolDebuggingContext18GetLoadedLibrariesB5cxx11EvENK3$_0clEP12dl_phdr_infomPv"(ptr noundef nonnull align 1 dereferenceable(1) %this, ptr noundef %info, i64 noundef %size, ptr noundef %data) #4 align 2 {
entry:
  %this.addr = alloca ptr, align 8
  %info.addr = alloca ptr, align 8
  %size.addr = alloca i64, align 8
  %data.addr = alloca ptr, align 8
  %list = alloca ptr, align 8
  store ptr %this, ptr %this.addr, align 8
  store ptr %info, ptr %info.addr, align 8
  store i64 %size, ptr %size.addr, align 8
  store ptr %data, ptr %data.addr, align 8
  %0 = load ptr, ptr %data.addr, align 8
  store ptr %0, ptr %list, align 8
  %1 = load ptr, ptr %info.addr, align 8
  %dlpi_name = getelementptr inbounds %struct.dl_phdr_info, ptr %1, i32 0, i32 1
  %2 = load ptr, ptr %dlpi_name, align 8
  %3 = load i8, ptr %2, align 1
  %conv = sext i8 %3 to i32
  %cmp = icmp ne i32 %conv, 0
  br i1 %cmp, label %if.then, label %if.end

if.then:                                          ; preds = %entry
  %4 = load ptr, ptr %list, align 8
  %5 = load ptr, ptr %info.addr, align 8
  %dlpi_name2 = getelementptr inbounds %struct.dl_phdr_info, ptr %5, i32 0, i32 1
  %call = call noundef nonnull align 8 dereferenceable(32) ptr @_ZNSt6vectorINSt7__cxx1112basic_stringIcSt11char_traitsIcESaIcEEESaIS5_EE12emplace_backIJRPKcEEERS5_DpOT_(ptr noundef nonnull align 8 dereferenceable(24) %4, ptr noundef nonnull align 8 dereferenceable(8) %dlpi_name2)
  br label %if.end

if.end:                                           ; preds = %if.then, %entry
  ret i32 0
}

; Function Attrs: mustprogress nounwind uwtable
define internal noundef i32 @"_ZZN4node28NativeSymbolDebuggingContext18GetLoadedLibrariesB5cxx11EvEN3$_08__invokeEP12dl_phdr_infomPv"(ptr noundef %info, i64 noundef %size, ptr noundef %data) #4 align 2 {
entry:
  %info.addr = alloca ptr, align 8
  %size.addr = alloca i64, align 8
  %data.addr = alloca ptr, align 8
  %unused.capture = alloca %class.anon.13, align 1
  store ptr %info, ptr %info.addr, align 8
  store i64 %size, ptr %size.addr, align 8
  store ptr %data, ptr %data.addr, align 8
  %0 = load ptr, ptr %info.addr, align 8
  %1 = load i64, ptr %size.addr, align 8
  %2 = load ptr, ptr %data.addr, align 8
  %call = call noundef i32 @"_ZZN4node28NativeSymbolDebuggingContext18GetLoadedLibrariesB5cxx11EvENK3$_0clEP12dl_phdr_infomPv"(ptr noundef nonnull align 1 dereferenceable(1) %unused.capture, ptr noundef %0, i64 noundef %1, ptr noundef %2)
  ret i32 %call
}