; Function Attrs: mustprogress nounwind uwtable
define internal noundef i32 @"_ZZN4node28NativeSymbolDebuggingContext18GetLoadedLibrariesB5cxx11EvEN3$_08__invokeEP12dl_phdr_infomPv"(ptr noundef %info, i64 %size, ptr noundef %data) #3 align 2 {
entry:
  %dlpi_name.i = getelementptr inbounds i8, ptr %info, i64 8
  %0 = load ptr, ptr %dlpi_name.i, align 8
  %1 = load i8, ptr %0, align 1
  %cmp.not.i = icmp eq i8 %1, 0
  br i1 %cmp.not.i, label %"_ZZN4node28NativeSymbolDebuggingContext18GetLoadedLibrariesB5cxx11EvENK3$_0clEP12dl_phdr_infomPv.exit", label %if.then.i

if.then.i:                                        ; preds = %entry
  %call.i = tail call noundef nonnull align 8 dereferenceable(32) ptr @_ZNSt6vectorINSt7__cxx1112basic_stringIcSt11char_traitsIcESaIcEEESaIS5_EE12emplace_backIJRPKcEEERS5_DpOT_(ptr noundef nonnull align 8 dereferenceable(24) %data, ptr noundef nonnull align 8 dereferenceable(8) %dlpi_name.i)
  br label %"_ZZN4node28NativeSymbolDebuggingContext18GetLoadedLibrariesB5cxx11EvENK3$_0clEP12dl_phdr_infomPv.exit"

"_ZZN4node28NativeSymbolDebuggingContext18GetLoadedLibrariesB5cxx11EvENK3$_0clEP12dl_phdr_infomPv.exit": ; preds = %entry, %if.then.i
  ret i32 0
}